target datalayout = "e-m:e-p270:32:32-p271:32:32-p272:64:64-i64:64-i128:128-f80:128-n8:16:32:64-S128"
target triple = "x86_64-pc-linux-gnu"

%struct.AVRational = type { i32, i32 }
%struct.AVPacket = type { ptr, i64, i64, ptr, i32, i32, i32, ptr, i32, i64, i64, ptr, ptr, %struct.AVRational }

@start_sequence = internal constant [4 x i8] c"\00\00\00\01", align 1
@.str.1 = private unnamed_addr constant [32 x i8] c"nal size exceeds length: %d %d\0A\00", align 1

; Function Attrs: alwaysinline nounwind willreturn memory(none) uwtable
define internal zeroext i16 @av_bswap16(i16 noundef zeroext %0) #6 {
  %2 = alloca i16, align 2
  store i16 %0, ptr %2, align 2, !tbaa !39
  %3 = load i16, ptr %2, align 2, !tbaa !39
  %4 = zext i16 %3 to i32
  %5 = ashr i32 %4, 8
  %6 = load i16, ptr %2, align 2, !tbaa !39
  %7 = zext i16 %6 to i32
  %8 = shl i32 %7, 8
  %9 = or i32 %5, %8
  %10 = trunc i32 %9 to i16
  store i16 %10, ptr %2, align 2, !tbaa !39
  %11 = load i16, ptr %2, align 2, !tbaa !39
  ret i16 %11
}

; Function Attrs: nounwind uwtable
define i32 @ff_h264_handle_aggregated_packet(ptr noundef %0, ptr noundef %1, ptr noundef %2, ptr noundef %3, i32 noundef %4, i32 noundef %5, ptr noundef %6, i32 noundef %7) #0 {
  %9 = alloca i32, align 4
  %10 = alloca ptr, align 8
  %11 = alloca ptr, align 8
  %12 = alloca ptr, align 8
  %13 = alloca ptr, align 8
  %14 = alloca i32, align 4
  %15 = alloca i32, align 4
  %16 = alloca ptr, align 8
  %17 = alloca i32, align 4
  %18 = alloca i32, align 4
  %19 = alloca i32, align 4
  %20 = alloca ptr, align 8
  %21 = alloca i32, align 4
  %22 = alloca ptr, align 8
  %23 = alloca i32, align 4
  %24 = alloca i16, align 2
  %25 = alloca i32, align 4
  store ptr %0, ptr %10, align 8, !tbaa !4
  store ptr %1, ptr %11, align 8, !tbaa !35
  store ptr %2, ptr %12, align 8, !tbaa !37
  store ptr %3, ptr %13, align 8, !tbaa !14
  store i32 %4, ptr %14, align 4, !tbaa !19
  store i32 %5, ptr %15, align 4, !tbaa !19
  store ptr %6, ptr %16, align 8, !tbaa !12
  store i32 %7, ptr %17, align 4, !tbaa !19
  call void @llvm.lifetime.start.p0(i64 4, ptr %18) #9
  store i32 0, ptr %18, align 4, !tbaa !19
  call void @llvm.lifetime.start.p0(i64 4, ptr %19) #9
  store i32 0, ptr %19, align 4, !tbaa !19
  call void @llvm.lifetime.start.p0(i64 8, ptr %20) #9
  store ptr null, ptr %20, align 8, !tbaa !14
  call void @llvm.lifetime.start.p0(i64 4, ptr %21) #9
  store i32 0, ptr %18, align 4, !tbaa !19
  br label %26

26:                                               ; preds = %126, %8
  %27 = load i32, ptr %18, align 4, !tbaa !19
  %28 = icmp slt i32 %27, 2
  br i1 %28, label %29, label %129

29:                                               ; preds = %26
  call void @llvm.lifetime.start.p0(i64 8, ptr %22) #9
  %30 = load ptr, ptr %13, align 8, !tbaa !14
  store ptr %30, ptr %22, align 8, !tbaa !14
  call void @llvm.lifetime.start.p0(i64 4, ptr %23) #9
  %31 = load i32, ptr %14, align 4, !tbaa !19
  store i32 %31, ptr %23, align 4, !tbaa !19
  br label %32

32:                                               ; preds = %107, %29
  %33 = load i32, ptr %23, align 4, !tbaa !19
  %34 = icmp sgt i32 %33, 2
  br i1 %34, label %35, label %108

35:                                               ; preds = %32
  call void @llvm.lifetime.start.p0(i64 2, ptr %24) #9
  %36 = load ptr, ptr %22, align 8, !tbaa !14
  %37 = load i16, ptr %36, align 1, !tbaa !16
  %38 = call zeroext i16 @av_bswap16(i16 noundef zeroext %37) #11
  store i16 %38, ptr %24, align 2, !tbaa !39
  %39 = load ptr, ptr %22, align 8, !tbaa !14
  %40 = getelementptr inbounds i8, ptr %39, i64 2
  store ptr %40, ptr %22, align 8, !tbaa !14
  %41 = load i32, ptr %23, align 4, !tbaa !19
  %42 = sub nsw i32 %41, 2
  store i32 %42, ptr %23, align 4, !tbaa !19
  %43 = load i16, ptr %24, align 2, !tbaa !39
  %44 = zext i16 %43 to i32
  %45 = load i32, ptr %23, align 4, !tbaa !19
  %46 = icmp sle i32 %44, %45
  br i1 %46, label %47, label %86

47:                                               ; preds = %35
  %48 = load i32, ptr %18, align 4, !tbaa !19
  %49 = icmp eq i32 %48, 0
  br i1 %49, label %50, label %58

50:                                               ; preds = %47
  %51 = load i16, ptr %24, align 2, !tbaa !39
  %52 = zext i16 %51 to i64
  %53 = add i64 4, %52
  %54 = load i32, ptr %19, align 4, !tbaa !19
  %55 = sext i32 %54 to i64
  %56 = add i64 %55, %53
  %57 = trunc i64 %56 to i32
  store i32 %57, ptr %19, align 4, !tbaa !19
  br label %85

58:                                               ; preds = %47
  %59 = load ptr, ptr %20, align 8, !tbaa !14
  call void @llvm.memcpy.p0.p0.i64(ptr align 1 %59, ptr align 1 @start_sequence, i64 4, i1 false)
  %60 = load ptr, ptr %20, align 8, !tbaa !14
  %61 = getelementptr inbounds nuw i8, ptr %60, i64 4
  store ptr %61, ptr %20, align 8, !tbaa !14
  %62 = load ptr, ptr %20, align 8, !tbaa !14
  %63 = load ptr, ptr %22, align 8, !tbaa !14
  %64 = load i16, ptr %24, align 2, !tbaa !39
  %65 = zext i16 %64 to i64
  call void @llvm.memcpy.p0.p0.i64(ptr align 1 %62, ptr align 1 %63, i64 %65, i1 false)
  %66 = load ptr, ptr %16, align 8, !tbaa !12
  %67 = icmp ne ptr %66, null
  br i1 %67, label %68, label %79

68:                                               ; preds = %58
  %69 = load ptr, ptr %16, align 8, !tbaa !12
  %70 = load ptr, ptr %22, align 8, !tbaa !14
  %71 = load i8, ptr %70, align 1, !tbaa !16
  %72 = zext i8 %71 to i32
  %73 = load i32, ptr %17, align 4, !tbaa !19
  %74 = and i32 %72, %73
  %75 = sext i32 %74 to i64
  %76 = getelementptr inbounds i32, ptr %69, i64 %75
  %77 = load i32, ptr %76, align 4, !tbaa !19
  %78 = add nsw i32 %77, 1
  store i32 %78, ptr %76, align 4, !tbaa !19
  br label %79

79:                                               ; preds = %68, %58
  %80 = load i16, ptr %24, align 2, !tbaa !39
  %81 = zext i16 %80 to i32
  %82 = load ptr, ptr %20, align 8, !tbaa !14
  %83 = sext i32 %81 to i64
  %84 = getelementptr inbounds i8, ptr %82, i64 %83
  store ptr %84, ptr %20, align 8, !tbaa !14
  br label %85

85:                                               ; preds = %79, %50
  br label %91

86:                                               ; preds = %35
  %87 = load ptr, ptr %10, align 8, !tbaa !4
  %88 = load i16, ptr %24, align 2, !tbaa !39
  %89 = zext i16 %88 to i32
  %90 = load i32, ptr %23, align 4, !tbaa !19
  call void (ptr, i32, ptr, ...) @av_log(ptr noundef %87, i32 noundef 16, ptr noundef @.str.1, i32 noundef %89, i32 noundef %90)
  store i32 -1094995529, ptr %9, align 4
  store i32 1, ptr %25, align 4
  br label %105

91:                                               ; preds = %85
  %92 = load i16, ptr %24, align 2, !tbaa !39
  %93 = zext i16 %92 to i32
  %94 = load i32, ptr %15, align 4, !tbaa !19
  %95 = add nsw i32 %93, %94
  %96 = load ptr, ptr %22, align 8, !tbaa !14
  %97 = sext i32 %95 to i64
  %98 = getelementptr inbounds i8, ptr %96, i64 %97
  store ptr %98, ptr %22, align 8, !tbaa !14
  %99 = load i16, ptr %24, align 2, !tbaa !39
  %100 = zext i16 %99 to i32
  %101 = load i32, ptr %15, align 4, !tbaa !19
  %102 = add nsw i32 %100, %101
  %103 = load i32, ptr %23, align 4, !tbaa !19
  %104 = sub nsw i32 %103, %102
  store i32 %104, ptr %23, align 4, !tbaa !19
  store i32 0, ptr %25, align 4
  br label %105

105:                                              ; preds = %91, %86
  call void @llvm.lifetime.end.p0(i64 2, ptr %24) #9
  %106 = load i32, ptr %25, align 4
  switch i32 %106, label %123 [
    i32 0, label %107
  ]

107:                                              ; preds = %105
  br label %32, !llvm.loop !41

108:                                              ; preds = %32
  %109 = load i32, ptr %18, align 4, !tbaa !19
  %110 = icmp eq i32 %109, 0
  br i1 %110, label %111, label %122

111:                                              ; preds = %108
  %112 = load ptr, ptr %12, align 8, !tbaa !37
  %113 = load i32, ptr %19, align 4, !tbaa !19
  %114 = call i32 @av_new_packet(ptr noundef %112, i32 noundef %113)
  store i32 %114, ptr %21, align 4, !tbaa !19
  %115 = icmp slt i32 %114, 0
  br i1 %115, label %116, label %118

116:                                              ; preds = %111
  %117 = load i32, ptr %21, align 4, !tbaa !19
  store i32 %117, ptr %9, align 4
  store i32 1, ptr %25, align 4
  br label %123

118:                                              ; preds = %111
  %119 = load ptr, ptr %12, align 8, !tbaa !37
  %120 = getelementptr inbounds nuw %struct.AVPacket, ptr %119, i32 0, i32 3
  %121 = load ptr, ptr %120, align 8, !tbaa !42
  store ptr %121, ptr %20, align 8, !tbaa !14
  br label %122

122:                                              ; preds = %118, %108
  store i32 0, ptr %25, align 4
  br label %123

123:                                              ; preds = %122, %116, %105
  call void @llvm.lifetime.end.p0(i64 4, ptr %23) #9
  call void @llvm.lifetime.end.p0(i64 8, ptr %22) #9
  %124 = load i32, ptr %25, align 4
  switch i32 %124, label %130 [
    i32 0, label %125
  ]

125:                                              ; preds = %123
  br label %126

126:                                              ; preds = %125
  %127 = load i32, ptr %18, align 4, !tbaa !19
  %128 = add nsw i32 %127, 1
  store i32 %128, ptr %18, align 4, !tbaa !19
  br label %26, !llvm.loop !45

129:                                              ; preds = %26
  store i32 0, ptr %9, align 4
  store i32 1, ptr %25, align 4
  br label %130

130:                                              ; preds = %129, %123
  call void @llvm.lifetime.end.p0(i64 4, ptr %21) #9
  call void @llvm.lifetime.end.p0(i64 8, ptr %20) #9
  call void @llvm.lifetime.end.p0(i64 4, ptr %19) #9
  call void @llvm.lifetime.end.p0(i64 4, ptr %18) #9
  %131 = load i32, ptr %9, align 4
  ret i32 %131
}