; Function Attrs: nounwind uwtable
define range(i32 -2147483648, 1) i32 @ff_h264_handle_aggregated_packet(ptr noundef %0, ptr noundef readnone captures(none) %1, ptr noundef %2, ptr noundef readonly captures(none) %3, i32 noundef %4, i32 noundef %5, ptr noundef captures(address_is_null) %6, i32 noundef %7) local_unnamed_addr #0 {
  %9 = icmp sgt i32 %4, 2
  %10 = getelementptr inbounds nuw i8, ptr %2, i64 24
  br i1 %9, label %.split.us, label %.preheader

.split.us:                                        ; preds = %8
  %.not64 = icmp eq ptr %6, null
  br i1 %.not64, label %.preheader.us.us, label %.preheader.us

.preheader.us.us:                                 ; preds = %.split.us, %15
  %11 = phi i1 [ false, %15 ], [ true, %.split.us ]
  %.048102.us.us = phi ptr [ %16, %15 ], [ null, %.split.us ]
  %.053101.us.us = phi i32 [ %.us-phi87.us.us, %15 ], [ 0, %.split.us ]
  br i1 %11, label %.lr.ph.split.us.us.us, label %.lr.ph.split.us108.us

12:                                               ; preds = %._crit_edge.us.us
  %13 = tail call i32 @av_new_packet(ptr noundef %2, i32 noundef %.us-phi87.us.us) #10
  %14 = icmp slt i32 %13, 0
  br i1 %14, label %.loopexit, label %15

15:                                               ; preds = %12
  %16 = load ptr, ptr %10, align 8, !tbaa !26
  br label %.preheader.us.us, !llvm.loop !29

._crit_edge.us.us:                                ; preds = %34, %21
  %.us-phi87.us.us = phi i32 [ %24, %21 ], [ %.053101.us.us, %34 ]
  br i1 %11, label %12, label %.loopexit

.lr.ph.split.us.us.us:                            ; preds = %.preheader.us.us, %21
  %.04384.us.us.us = phi i32 [ %28, %21 ], [ %4, %.preheader.us.us ]
  %.04583.us.us.us = phi ptr [ %27, %21 ], [ %3, %.preheader.us.us ]
  %.15481.us.us.us = phi i32 [ %24, %21 ], [ %.053101.us.us, %.preheader.us.us ]
  %17 = load i16, ptr %.04583.us.us.us, align 1, !tbaa !4
  %18 = tail call i16 @llvm.bswap.i16(i16 %17)
  %19 = add nsw i32 %.04384.us.us.us, -2
  %20 = zext i16 %18 to i32
  %.not.not.us.us.us = icmp samesign ult i32 %19, %20
  br i1 %.not.not.us.us.us, label %.thread, label %21

21:                                               ; preds = %.lr.ph.split.us.us.us
  %22 = getelementptr inbounds nuw i8, ptr %.04583.us.us.us, i64 2
  %23 = add i32 %.15481.us.us.us, 4
  %24 = add i32 %23, %20
  %25 = add nsw i32 %5, %20
  %26 = sext i32 %25 to i64
  %27 = getelementptr inbounds i8, ptr %22, i64 %26
  %28 = sub nsw i32 %19, %25
  %29 = icmp sgt i32 %28, 2
  br i1 %29, label %.lr.ph.split.us.us.us, label %._crit_edge.us.us

.lr.ph.split.us108.us:                            ; preds = %.preheader.us.us, %34
  %.04384.us89.us.us = phi i32 [ %42, %34 ], [ %4, %.preheader.us.us ]
  %.04583.us90.us.us = phi ptr [ %41, %34 ], [ %3, %.preheader.us.us ]
  %.14982.us91.us.us = phi ptr [ %38, %34 ], [ %.048102.us.us, %.preheader.us.us ]
  %30 = load i16, ptr %.04583.us90.us.us, align 1, !tbaa !4
  %31 = tail call i16 @llvm.bswap.i16(i16 %30)
  %32 = add nsw i32 %.04384.us89.us.us, -2
  %33 = zext i16 %31 to i32
  %.not.not.us92.us.us = icmp samesign ult i32 %32, %33
  br i1 %.not.not.us92.us.us, label %.thread, label %34

34:                                               ; preds = %.lr.ph.split.us108.us
  %35 = getelementptr inbounds nuw i8, ptr %.04583.us90.us.us, i64 2
  store i32 16777216, ptr %.14982.us91.us.us, align 1
  %36 = getelementptr inbounds nuw i8, ptr %.14982.us91.us.us, i64 4
  %37 = zext i16 %31 to i64
  tail call void @llvm.memcpy.p0.p0.i64(ptr nonnull align 1 %36, ptr nonnull align 1 %35, i64 %37, i1 false)
  %38 = getelementptr inbounds nuw i8, ptr %36, i64 %37
  %39 = add nsw i32 %5, %33
  %40 = sext i32 %39 to i64
  %41 = getelementptr inbounds i8, ptr %35, i64 %40
  %42 = sub nsw i32 %32, %39
  %43 = icmp sgt i32 %42, 2
  br i1 %43, label %.lr.ph.split.us108.us, label %._crit_edge.us.us

.preheader.us:                                    ; preds = %.split.us, %48
  %44 = phi i1 [ false, %48 ], [ true, %.split.us ]
  %.048102.us = phi ptr [ %49, %48 ], [ null, %.split.us ]
  %.053101.us = phi i32 [ %.us-phi87.us, %48 ], [ 0, %.split.us ]
  br i1 %44, label %.lr.ph.split.us.us, label %.lr.ph.split.us108

45:                                               ; preds = %._crit_edge.us
  %46 = tail call i32 @av_new_packet(ptr noundef %2, i32 noundef %.us-phi87.us) #10
  %47 = icmp slt i32 %46, 0
  br i1 %47, label %.loopexit, label %48

48:                                               ; preds = %45
  %49 = load ptr, ptr %10, align 8, !tbaa !26
  br label %.preheader.us, !llvm.loop !29

.lr.ph.split.us108:                               ; preds = %.preheader.us, %54
  %.04384.us104 = phi i32 [ %69, %54 ], [ %4, %.preheader.us ]
  %.04583.us105 = phi ptr [ %68, %54 ], [ %3, %.preheader.us ]
  %.14982.us = phi ptr [ %65, %54 ], [ %.048102.us, %.preheader.us ]
  %50 = load i16, ptr %.04583.us105, align 1, !tbaa !4
  %51 = tail call i16 @llvm.bswap.i16(i16 %50)
  %52 = add nsw i32 %.04384.us104, -2
  %53 = zext i16 %51 to i32
  %.not.not.us106 = icmp samesign ult i32 %52, %53
  br i1 %.not.not.us106, label %.thread, label %54

54:                                               ; preds = %.lr.ph.split.us108
  %55 = getelementptr inbounds nuw i8, ptr %.04583.us105, i64 2
  store i32 16777216, ptr %.14982.us, align 1
  %56 = getelementptr inbounds nuw i8, ptr %.14982.us, i64 4
  %57 = zext i16 %51 to i64
  tail call void @llvm.memcpy.p0.p0.i64(ptr nonnull align 1 %56, ptr nonnull align 1 %55, i64 %57, i1 false)
  %58 = load i8, ptr %55, align 1, !tbaa !4
  %59 = zext i8 %58 to i32
  %60 = and i32 %7, %59
  %61 = zext nneg i32 %60 to i64
  %62 = getelementptr inbounds nuw i32, ptr %6, i64 %61
  %63 = load i32, ptr %62, align 4, !tbaa !12
  %64 = add nsw i32 %63, 1
  store i32 %64, ptr %62, align 4, !tbaa !12
  %65 = getelementptr inbounds nuw i8, ptr %56, i64 %57
  %66 = add nsw i32 %5, %53
  %67 = sext i32 %66 to i64
  %68 = getelementptr inbounds i8, ptr %55, i64 %67
  %69 = sub nsw i32 %52, %66
  %70 = icmp sgt i32 %69, 2
  br i1 %70, label %.lr.ph.split.us108, label %._crit_edge.us

._crit_edge.us:                                   ; preds = %54, %75
  %.us-phi87.us = phi i32 [ %78, %75 ], [ %.053101.us, %54 ]
  br i1 %44, label %45, label %.loopexit

.lr.ph.split.us.us:                               ; preds = %.preheader.us, %75
  %.04384.us.us = phi i32 [ %82, %75 ], [ %4, %.preheader.us ]
  %.04583.us.us = phi ptr [ %81, %75 ], [ %3, %.preheader.us ]
  %.15481.us.us = phi i32 [ %78, %75 ], [ %.053101.us, %.preheader.us ]
  %71 = load i16, ptr %.04583.us.us, align 1, !tbaa !4
  %72 = tail call i16 @llvm.bswap.i16(i16 %71)
  %73 = add nsw i32 %.04384.us.us, -2
  %74 = zext i16 %72 to i32
  %.not.not.us.us = icmp samesign ult i32 %73, %74
  br i1 %.not.not.us.us, label %.thread, label %75

75:                                               ; preds = %.lr.ph.split.us.us
  %76 = getelementptr inbounds nuw i8, ptr %.04583.us.us, i64 2
  %77 = add i32 %.15481.us.us, 4
  %78 = add i32 %77, %74
  %79 = add nsw i32 %5, %74
  %80 = sext i32 %79 to i64
  %81 = getelementptr inbounds i8, ptr %76, i64 %80
  %82 = sub nsw i32 %73, %79
  %83 = icmp sgt i32 %82, 2
  br i1 %83, label %.lr.ph.split.us.us, label %._crit_edge.us

.thread:                                          ; preds = %.lr.ph.split.us108, %.lr.ph.split.us.us, %.lr.ph.split.us108.us, %.lr.ph.split.us.us.us
  %.us-phi = phi i32 [ %19, %.lr.ph.split.us.us.us ], [ %32, %.lr.ph.split.us108.us ], [ %73, %.lr.ph.split.us.us ], [ %52, %.lr.ph.split.us108 ]
  %.us-phi86 = phi i32 [ %20, %.lr.ph.split.us.us.us ], [ %33, %.lr.ph.split.us108.us ], [ %74, %.lr.ph.split.us.us ], [ %53, %.lr.ph.split.us108 ]
  tail call void (ptr, i32, ptr, ...) @av_log(ptr noundef %0, i32 noundef 16, ptr noundef nonnull @.str.1, i32 noundef %.us-phi86, i32 noundef %.us-phi) #10
  br label %.loopexit

.preheader:                                       ; preds = %8
  %84 = tail call i32 @av_new_packet(ptr noundef %2, i32 noundef 0) #10
  %spec.select = tail call i32 @llvm.smin.i32(i32 %84, i32 0)
  br label %.loopexit

.loopexit:                                        ; preds = %45, %._crit_edge.us, %12, %._crit_edge.us.us, %.preheader, %.thread
  %.4 = phi i32 [ -1094995529, %.thread ], [ %spec.select, %.preheader ], [ 0, %._crit_edge.us.us ], [ %13, %12 ], [ 0, %._crit_edge.us ], [ %46, %45 ]
  ret i32 %.4
}